(lp0
VMMM
p1
aVABT
p2
aVABBV
p3
aVABMD
p4
aVACN
p5
aVATVI
p6
aVADBE
p7
aVAMD
p8
aVAAP
p9
aVAES
p10
aVAMG
p11
aVAFL
p12
aVA
p13
aVAPD
p14
aVAKAM
p15
aVALK
p16
aVALB
p17
aVARE
p18
aVALXN
p19
aVALGN
p20
aVALLE
p21
aVAGN
p22
aVADS
p23
aVLNT
p24
aVALL
p25
aVGOOGL
p26
aVGOOG
p27
aVMO
p28
aVAMZN
p29
aVAEE
p30
aVAAL
p31
aVAEP
p32
aVAXP
p33
aVAIG
p34
aVAMT
p35
aVAWK
p36
aVAMP
p37
aVABC
p38
aVAME
p39
aVAMGN
p40
aVAPH
p41
aVAPC
p42
aVADI
p43
aVANSS
p44
aVANTM
p45
aVAON
p46
aVAOS
p47
aVAPA
p48
aVAIV
p49
aVAAPL
p50
aVAMAT
p51
aVAPTV
p52
aVADM
p53
aVARNC
p54
aVANET
p55
aVAJG
p56
aVAIZ
p57
aVATO
p58
aVT
p59
aVADSK
p60
aVADP
p61
aVAZO
p62
aVAVB
p63
aVAVY
p64
aVBHGE
p65
aVBLL
p66
aVBAC
p67
aVBK
p68
aVBAX
p69
aVBBT
p70
aVBDX
p71
aVBRK.B
p72
aVBBY
p73
aVBIIB
p74
aVBLK
p75
aVHRB
p76
aVBA
p77
aVBKNG
p78
aVBWA
p79
aVBXP
p80
aVBSX
p81
aVBMY
p82
aVAVGO
p83
aVBR
p84
aVBF.B
p85
aVCHRW
p86
aVCOG
p87
aVCDNS
p88
aVCPB
p89
aVCOF
p90
aVCPRI
p91
aVCAH
p92
aVKMX
p93
aVCCL
p94
aVCAT
p95
aVCBOE
p96
aVCBRE
p97
aVCBS
p98
aVCE
p99
aVCELG
p100
aVCNC
p101
aVCNP
p102
aVCTL
p103
aVCERN
p104
aVCF
p105
aVSCHW
p106
aVCHTR
p107
aVCVX
p108
aVCMG
p109
aVCB
p110
aVCHD
p111
aVCI
p112
aVXEC
p113
aVCINF
p114
aVCTAS
p115
aVCSCO
p116
aVC
p117
aVCFG
p118
aVCTXS
p119
aVCLX
p120
aVCME
p121
aVCMS
p122
aVKO
p123
aVCTSH
p124
aVCL
p125
aVCMCSA
p126
aVCMA
p127
aVCAG
p128
aVCXO
p129
aVCOP
p130
aVED
p131
aVSTZ
p132
aVCOO
p133
aVCPRT
p134
aVGLW
p135
aVCOST
p136
aVCOTY
p137
aVCCI
p138
aVCSX
p139
aVCMI
p140
aVCVS
p141
aVDHI
p142
aVDHR
p143
aVDRI
p144
aVDVA
p145
aVDE
p146
aVDAL
p147
aVXRAY
p148
aVDVN
p149
aVFANG
p150
aVDLR
p151
aVDFS
p152
aVDISCA
p153
aVDISCK
p154
aVDISH
p155
aVDG
p156
aVDLTR
p157
aVD
p158
aVDOV
p159
aVDOW
p160
aVDWDP
p161
aVDTE
p162
aVDRE
p163
aVDUK
p164
aVDXC
p165
aVETFC
p166
aVEMN
p167
aVETN
p168
aVEBAY
p169
aVECL
p170
aVEIX
p171
aVEW
p172
aVEA
p173
aVEMR
p174
aVETR
p175
aVEOG
p176
aVEFX
p177
aVEQIX
p178
aVEQR
p179
aVESS
p180
aVEL
p181
aVEVRG
p182
aVES
p183
aVRE
p184
aVEXC
p185
aVEXPE
p186
aVEXPD
p187
aVEXR
p188
aVXOM
p189
aVFFIV
p190
aVFB
p191
aVFAST
p192
aVFRT
p193
aVFDX
p194
aVFIS
p195
aVFITB
p196
aVFE
p197
aVFRC
p198
aVFISV
p199
aVFLT
p200
aVFLIR
p201
aVFLS
p202
aVFLR
p203
aVFMC
p204
aVFL
p205
aVF
p206
aVFTNT
p207
aVFTV
p208
aVFBHS
p209
aVFOXA
p210
aVFOX
p211
aVBEN
p212
aVFCX
p213
aVGPS
p214
aVGRMN
p215
aVIT
p216
aVGD
p217
aVGE
p218
aVGIS
p219
aVGM
p220
aVGPC
p221
aVGILD
p222
aVGPN
p223
aVGS
p224
aVGWW
p225
aVHAL
p226
aVHBI
p227
aVHOG
p228
aVHRS
p229
aVHIG
p230
aVHAS
p231
aVHCA
p232
aVHCP
p233
aVHP
p234
aVHSIC
p235
aVHSY
p236
aVHES
p237
aVHPE
p238
aVHLT
p239
aVHFC
p240
aVHOLX
p241
aVHD
p242
aVHON
p243
aVHRL
p244
aVHST
p245
aVHPQ
p246
aVHUM
p247
aVHBAN
p248
aVHII
p249
aVIDXX
p250
aVINFO
p251
aVITW
p252
aVILMN
p253
aVIR
p254
aVINTC
p255
aVICE
p256
aVIBM
p257
aVINCY
p258
aVIP
p259
aVIPG
p260
aVIFF
p261
aVINTU
p262
aVISRG
p263
aVIVZ
p264
aVIPGP
p265
aVIQV
p266
aVIRM
p267
aVJKHY
p268
aVJEC
p269
aVJBHT
p270
aVJEF
p271
aVSJM
p272
aVJNJ
p273
aVJCI
p274
aVJPM
p275
aVJNPR
p276
aVKSU
p277
aVK
p278
aVKEY
p279
aVKEYS
p280
aVKMB
p281
aVKIM
p282
aVKMI
p283
aVKLAC
p284
aVKSS
p285
aVKHC
p286
aVKR
p287
aVLB
p288
aVLLL
p289
aVLH
p290
aVLRCX
p291
aVLW
p292
aVLEG
p293
aVLEN
p294
aVLLY
p295
aVLNC
p296
aVLIN
p297
aVLKQ
p298
aVLMT
p299
aVL
p300
aVLOW
p301
aVLYB
p302
aVMTB
p303
aVMAC
p304
aVM
p305
aVMRO
p306
aVMPC
p307
aVMAR
p308
aVMMC
p309
aVMLM
p310
aVMAS
p311
aVMA
p312
aVMAT
p313
aVMKC
p314
aVMXIM
p315
aVMCD
p316
aVMCK
p317
aVMDT
p318
aVMRK
p319
aVMET
p320
aVMTD
p321
aVMGM
p322
aVMCHP
p323
aVMU
p324
aVMSFT
p325
aVMAA
p326
aVMHK
p327
aVTAP
p328
aVMDLZ
p329
aVMNST
p330
aVMCO
p331
aVMS
p332
aVMOS
p333
aVMSI
p334
aVMSCI
p335
aVMYL
p336
aVNDAQ
p337
aVNOV
p338
aVNKTR
p339
aVNTAP
p340
aVNFLX
p341
aVNWL
p342
aVNEM
p343
aVNWSA
p344
aVNWS
p345
aVNEE
p346
aVNLSN
p347
aVNKE
p348
aVNI
p349
aVNBL
p350
aVJWN
p351
aVNSC
p352
aVNTRS
p353
aVNOC
p354
aVNCLH
p355
aVNRG
p356
aVNUE
p357
aVNVDA
p358
aVORLY
p359
aVOXY
p360
aVOMC
p361
aVOKE
p362
aVORCL
p363
aVPCAR
p364
aVPKG
p365
aVPH
p366
aVPAYX
p367
aVPYPL
p368
aVPNR
p369
aVPBCT
p370
aVPEP
p371
aVPKI
p372
aVPRGO
p373
aVPFE
p374
aVPM
p375
aVPSX
p376
aVPNW
p377
aVPXD
p378
aVPNC
p379
aVRL
p380
aVPPG
p381
aVPPL
p382
aVPFG
p383
aVPG
p384
aVPGR
p385
aVPLD
p386
aVPRU
p387
aVPEG
p388
aVPSA
p389
aVPHM
p390
aVPVH
p391
aVQRVO
p392
aVPWR
p393
aVQCOM
p394
aVDGX
p395
aVRJF
p396
aVRTN
p397
aVO
p398
aVRHT
p399
aVREG
p400
aVREGN
p401
aVRF
p402
aVRSG
p403
aVRMD
p404
aVRHI
p405
aVROK
p406
aVROL
p407
aVROP
p408
aVROST
p409
aVRCL
p410
aVCRM
p411
aVSBAC
p412
aVSLB
p413
aVSTX
p414
aVSEE
p415
aVSRE
p416
aVSHW
p417
aVSPG
p418
aVSWKS
p419
aVSLG
p420
aVSNA
p421
aVSO
p422
aVLUV
p423
aVSPGI
p424
aVSWK
p425
aVSBUX
p426
aVSTT
p427
aVSYK
p428
aVSTI
p429
aVSIVB
p430
aVSYMC
p431
aVSYF
p432
aVSNPS
p433
aVSYY
p434
aVTROW
p435
aVTTWO
p436
aVTPR
p437
aVTGT
p438
aVTEL
p439
aVFTI
p440
aVTFX
p441
aVTXN
p442
aVTXT
p443
aVTMO
p444
aVTIF
p445
aVTWTR
p446
aVTJX
p447
aVTMK
p448
aVTSS
p449
aVTSCO
p450
aVTDG
p451
aVTRV
p452
aVTRIP
p453
aVTSN
p454
aVUDR
p455
aVULTA
p456
aVUSB
p457
aVUAA
p458
aVUA
p459
aVUNP
p460
aVUAL
p461
aVUNH
p462
aVUPS
p463
aVURI
p464
aVUTX
p465
aVUHS
p466
aVUNM
p467
aVVFC
p468
aVVLO
p469
aVVAR
p470
aVVTR
p471
aVVRSN
p472
aVVRSK
p473
aVVZ
p474
aVVRTX
p475
aVVIAB
p476
aVV
p477
aVVNO
p478
aVVMC
p479
aVWAB
p480
aVWMT
p481
aVWBA
p482
aVDIS
p483
aVWM
p484
aVWAT
p485
aVWEC
p486
aVWCG
p487
aVWFC
p488
aVWELL
p489
aVWDC
p490
aVWU
p491
aVWRK
p492
aVWY
p493
aVWHR
p494
aVWMB
p495
aVWLTW
p496
aVWYNN
p497
aVXEL
p498
aVXRX
p499
aVXLNX
p500
aVXYL
p501
aVYUM
p502
aVZBH
p503
aVZION
p504
aVZTS
p505
a.